; Function Attrs: nounwind uwtable
define ptr @l_Array_mapFinIdxM_map___at_Lean_Meta_ArgsPacker_Mutual_curryType___spec__1___lambda__1___boxed(ptr noundef %0, ptr noundef %1, ptr noundef %2, ptr noundef %3, ptr noundef %4, ptr noundef %5, ptr noundef %6, ptr noundef %7, ptr noundef %8, ptr noundef %9) #1 {
  %11 = tail call ptr @l_Array_mapFinIdxM_map___at_Lean_Meta_ArgsPacker_Mutual_curryType___spec__1___lambda__1(ptr noundef %0, ptr noundef %1, ptr noundef %2, ptr noundef %3, ptr noundef %4, ptr noundef %5, ptr noundef %6, ptr noundef %7, ptr noundef %8, ptr noundef %9)
  %12 = ptrtoint ptr %1 to i64
  %13 = and i64 %12, 1
  %.not = icmp eq i64 %13, 0
  br i1 %.not, label %14, label %lean_dec.exit13

14:                                               ; preds = %10
  %15 = load i32, ptr %1, align 4, !tbaa !8
  %16 = icmp sgt i32 %15, 1
  br i1 %16, label %17, label %19, !prof !11

17:                                               ; preds = %14
  %18 = add nsw i32 %15, -1
  store i32 %18, ptr %1, align 4, !tbaa !8
  br label %lean_dec.exit13

19:                                               ; preds = %14
  %.not.i = icmp eq i32 %15, 0
  br i1 %.not.i, label %lean_dec.exit13, label %20

20:                                               ; preds = %19
  tail call void @lean_dec_ref_cold(ptr noundef nonnull %1) #7
  br label %lean_dec.exit13

lean_dec.exit13:                                  ; preds = %20, %19, %17, %10
  %21 = ptrtoint ptr %0 to i64
  %22 = and i64 %21, 1
  %.not16 = icmp eq i64 %22, 0
  br i1 %.not16, label %23, label %lean_dec.exit

23:                                               ; preds = %lean_dec.exit13
  %24 = load i32, ptr %0, align 4, !tbaa !8
  %25 = icmp sgt i32 %24, 1
  br i1 %25, label %26, label %28, !prof !11

26:                                               ; preds = %23
  %27 = add nsw i32 %24, -1
  store i32 %27, ptr %0, align 4, !tbaa !8
  br label %lean_dec.exit

28:                                               ; preds = %23
  %.not.i14 = icmp eq i32 %24, 0
  br i1 %.not.i14, label %lean_dec.exit, label %29

29:                                               ; preds = %28
  tail call void @lean_dec_ref_cold(ptr noundef nonnull %0) #7
  br label %lean_dec.exit

lean_dec.exit:                                    ; preds = %29, %28, %26, %lean_dec.exit13
  ret ptr %11
}